; Function Attrs: mustprogress uwtable
define hidden noundef zeroext i1 @_ZN4cvc58internal6theory11quantifiers8NestedQe23getNestedQuantificationENS0_12NodeTemplateILb1EEERSt13unordered_setIS5_St4hashIS5_ESt8equal_toIS5_ESaIS5_EE(ptr noundef readonly captures(none) %0, ptr noundef nonnull align 8 dereferenceable(56) %1) local_unnamed_addr #3 align 2 personality ptr @__gxx_personality_v0 {
  %3 = alloca %"class.cvc5::internal::NodeTemplate.293", align 8
  %4 = alloca %"class.cvc5::internal::NodeTemplate", align 8
  call void @llvm.lifetime.start.p0(i64 8, ptr nonnull %4) #20
  tail call void @llvm.experimental.noalias.scope.decl(metadata !117)
  %5 = load ptr, ptr %0, align 8, !tbaa !34, !noalias !117
  %6 = getelementptr inbounds nuw i8, ptr %5, i64 8
  %7 = load i64, ptr %6, align 8, !noalias !117
  %8 = trunc i64 %7 to i32
  %9 = and i32 %8, 1023
  %10 = icmp eq i32 %9, 1023
  %11 = select i1 %10, i32 -1, i32 %9
  %12 = tail call noundef i32 @_ZN4cvc58internal4kind10metaKindOfENS1_6Kind_tE(i32 noundef %11), !noalias !117
  %13 = icmp eq i32 %12, 2
  %spec.select.i.i = select i1 %13, i64 2, i64 1
  %14 = getelementptr inbounds nuw i8, ptr %5, i64 24
  %15 = getelementptr inbounds nuw [0 x ptr], ptr %14, i64 0, i64 %spec.select.i.i
  %16 = load ptr, ptr %15, align 8, !tbaa !79, !noalias !117
  store ptr %16, ptr %4, align 8, !tbaa !34, !alias.scope !117
  %17 = load i64, ptr %16, align 8, !noalias !117
  %18 = lshr i64 %17, 40
  %19 = trunc nuw nsw i64 %18 to i32
  %20 = and i32 %19, 1048575
  %21 = icmp samesign ult i32 %20, 1048574
  br i1 %21, label %22, label %27, !prof !47

22:                                               ; preds = %2
  %23 = add i64 %17, 1099511627776
  %24 = and i64 %23, 1152920405095219200
  %25 = and i64 %17, -1152920405095219201
  %26 = or disjoint i64 %24, %25
  store i64 %26, ptr %16, align 8, !noalias !117
  br label %_ZNK4cvc58internal12NodeTemplateILb1EEixEi.exit

27:                                               ; preds = %2
  %28 = icmp eq i32 %20, 1048574
  br i1 %28, label %29, label %_ZNK4cvc58internal12NodeTemplateILb1EEixEi.exit, !prof !48

29:                                               ; preds = %27
  %30 = or i64 %17, 1152920405095219200
  store i64 %30, ptr %16, align 8, !noalias !117
  tail call void @_ZN4cvc58internal4expr9NodeValue20markRefCountMaxedOutEv(ptr noundef nonnull align 8 dereferenceable(24) %16), !noalias !117
  br label %_ZNK4cvc58internal12NodeTemplateILb1EEixEi.exit

_ZNK4cvc58internal12NodeTemplateILb1EEixEi.exit:  ; preds = %22, %27, %29
  store ptr %16, ptr %3, align 8, !tbaa !70
  invoke void @_ZN4cvc58internal4expr15getKindSubtermsENS0_12NodeTemplateILb0EEENS0_4kind6Kind_tEbRSt13unordered_setINS2_ILb1EEESt4hashIS7_ESt8equal_toIS7_ESaIS7_EE(ptr noundef nonnull %3, i32 noundef 365, i1 noundef zeroext true, ptr noundef nonnull align 8 dereferenceable(56) %1)
          to label %31 unwind label %47

31:                                               ; preds = %_ZNK4cvc58internal12NodeTemplateILb1EEixEi.exit
  %32 = load i64, ptr %16, align 8
  %33 = and i64 %32, 1152920405095219200
  %.not.i.i = icmp eq i64 %33, 1152920405095219200
  br i1 %.not.i.i, label %_ZN4cvc58internal12NodeTemplateILb1EED2Ev.exit, label %34, !prof !48

34:                                               ; preds = %31
  %35 = add i64 %32, 1152920405095219200
  %36 = and i64 %35, 1152920405095219200
  %37 = and i64 %32, -1152920405095219201
  %38 = or disjoint i64 %36, %37
  store i64 %38, ptr %16, align 8
  %39 = icmp eq i64 %36, 0
  br i1 %39, label %40, label %_ZN4cvc58internal12NodeTemplateILb1EED2Ev.exit, !prof !48

40:                                               ; preds = %34
  invoke void @_ZN4cvc58internal4expr9NodeValue15markForDeletionEv(ptr noundef nonnull align 8 dereferenceable(24) %16)
          to label %_ZN4cvc58internal12NodeTemplateILb1EED2Ev.exit unwind label %41

41:                                               ; preds = %40
  %42 = landingpad { ptr, i32 }
          catch ptr null
  %43 = extractvalue { ptr, i32 } %42, 0
  call void @__clang_call_terminate(ptr %43) #21
  unreachable

_ZN4cvc58internal12NodeTemplateILb1EED2Ev.exit:   ; preds = %31, %34, %40
  call void @llvm.lifetime.end.p0(i64 8, ptr nonnull %4) #20
  %44 = getelementptr inbounds nuw i8, ptr %1, i64 24
  %45 = load i64, ptr %44, align 8, !tbaa !120
  %46 = icmp ne i64 %45, 0
  ret i1 %46

47:                                               ; preds = %_ZNK4cvc58internal12NodeTemplateILb1EEixEi.exit
  %48 = landingpad { ptr, i32 }
          cleanup
  call void @_ZN4cvc58internal12NodeTemplateILb1EED2Ev(ptr noundef nonnull align 8 dereferenceable(8) %4) #20
  call void @llvm.lifetime.end.p0(i64 8, ptr nonnull %4) #20
  resume { ptr, i32 } %48
}